target datalayout = "e-m:e-p270:32:32-p271:32:32-p272:64:64-i64:64-i128:128-f80:128-n8:16:32:64-S128"
target triple = "x86_64-pc-linux-gnu"

; Function Attrs: inlinehint nounwind uwtable
define internal void @squaretrans(ptr noundef %0, i64 noundef %1) #2 {
  %3 = alloca ptr, align 8
  %4 = alloca i64, align 8
  %5 = alloca i64, align 8
  %6 = alloca i64, align 8
  %7 = alloca i64, align 8
  %8 = alloca i64, align 8
  %9 = alloca i64, align 8
  store ptr %0, ptr %3, align 8, !tbaa !3
  store i64 %1, ptr %4, align 8, !tbaa !8
  call void @llvm.lifetime.start.p0(i64 8, ptr %5) #7
  call void @llvm.lifetime.start.p0(i64 8, ptr %6) #7
  call void @llvm.lifetime.start.p0(i64 8, ptr %7) #7
  call void @llvm.lifetime.start.p0(i64 8, ptr %8) #7
  call void @llvm.lifetime.start.p0(i64 8, ptr %9) #7
  store i64 0, ptr %8, align 8, !tbaa !8
  br label %10

10:                                               ; preds = %58, %2
  %11 = load i64, ptr %8, align 8, !tbaa !8
  %12 = load i64, ptr %4, align 8, !tbaa !8
  %13 = icmp ult i64 %11, %12
  br i1 %13, label %14, label %61

14:                                               ; preds = %10
  %15 = load i64, ptr %8, align 8, !tbaa !8
  %16 = add i64 %15, 1
  store i64 %16, ptr %9, align 8, !tbaa !8
  %17 = load i64, ptr %8, align 8, !tbaa !8
  %18 = load i64, ptr %4, align 8, !tbaa !8
  %19 = mul i64 %17, %18
  %20 = load i64, ptr %9, align 8, !tbaa !8
  %21 = add i64 %19, %20
  store i64 %21, ptr %7, align 8, !tbaa !8
  %22 = load i64, ptr %9, align 8, !tbaa !8
  %23 = load i64, ptr %4, align 8, !tbaa !8
  %24 = mul i64 %22, %23
  %25 = load i64, ptr %8, align 8, !tbaa !8
  %26 = add i64 %24, %25
  store i64 %26, ptr %6, align 8, !tbaa !8
  %27 = load i64, ptr %8, align 8, !tbaa !8
  %28 = add i64 %27, 1
  store i64 %28, ptr %9, align 8, !tbaa !8
  br label %29

29:                                               ; preds = %54, %14
  %30 = load i64, ptr %9, align 8, !tbaa !8
  %31 = load i64, ptr %4, align 8, !tbaa !8
  %32 = icmp ult i64 %30, %31
  br i1 %32, label %33, label %57

33:                                               ; preds = %29
  %34 = load ptr, ptr %3, align 8, !tbaa !3
  %35 = load i64, ptr %7, align 8, !tbaa !8
  %36 = getelementptr i64, ptr %34, i64 %35
  %37 = load i64, ptr %36, align 8, !tbaa !8
  store i64 %37, ptr %5, align 8, !tbaa !8
  %38 = load ptr, ptr %3, align 8, !tbaa !3
  %39 = load i64, ptr %6, align 8, !tbaa !8
  %40 = getelementptr i64, ptr %38, i64 %39
  %41 = load i64, ptr %40, align 8, !tbaa !8
  %42 = load ptr, ptr %3, align 8, !tbaa !3
  %43 = load i64, ptr %7, align 8, !tbaa !8
  %44 = getelementptr i64, ptr %42, i64 %43
  store i64 %41, ptr %44, align 8, !tbaa !8
  %45 = load i64, ptr %5, align 8, !tbaa !8
  %46 = load ptr, ptr %3, align 8, !tbaa !3
  %47 = load i64, ptr %6, align 8, !tbaa !8
  %48 = getelementptr i64, ptr %46, i64 %47
  store i64 %45, ptr %48, align 8, !tbaa !8
  %49 = load i64, ptr %7, align 8, !tbaa !8
  %50 = add i64 %49, 1
  store i64 %50, ptr %7, align 8, !tbaa !8
  %51 = load i64, ptr %4, align 8, !tbaa !8
  %52 = load i64, ptr %6, align 8, !tbaa !8
  %53 = add i64 %52, %51
  store i64 %53, ptr %6, align 8, !tbaa !8
  br label %54

54:                                               ; preds = %33
  %55 = load i64, ptr %9, align 8, !tbaa !8
  %56 = add i64 %55, 1
  store i64 %56, ptr %9, align 8, !tbaa !8
  br label %29, !llvm.loop !31

57:                                               ; preds = %29
  br label %58

58:                                               ; preds = %57
  %59 = load i64, ptr %8, align 8, !tbaa !8
  %60 = add i64 %59, 1
  store i64 %60, ptr %8, align 8, !tbaa !8
  br label %10, !llvm.loop !32

61:                                               ; preds = %10
  call void @llvm.lifetime.end.p0(i64 8, ptr %9) #7
  call void @llvm.lifetime.end.p0(i64 8, ptr %8) #7
  call void @llvm.lifetime.end.p0(i64 8, ptr %7) #7
  call void @llvm.lifetime.end.p0(i64 8, ptr %6) #7
  call void @llvm.lifetime.end.p0(i64 8, ptr %5) #7
  ret void
}

; Function Attrs: nounwind uwtable
define internal void @squaretrans_pow2(ptr noundef %0, i64 noundef %1) #0 {
  %3 = alloca ptr, align 8
  %4 = alloca i64, align 8
  %5 = alloca [16384 x i64], align 16
  %6 = alloca [16384 x i64], align 16
  %7 = alloca ptr, align 8
  %8 = alloca ptr, align 8
  %9 = alloca i64, align 8
  %10 = alloca i64, align 8
  %11 = alloca i64, align 8
  %12 = alloca i64, align 8
  store ptr %0, ptr %3, align 8, !tbaa !3
  store i64 %1, ptr %4, align 8, !tbaa !8
  call void @llvm.lifetime.start.p0(i64 131072, ptr %5) #7
  call void @llvm.lifetime.start.p0(i64 131072, ptr %6) #7
  call void @llvm.lifetime.start.p0(i64 8, ptr %7) #7
  call void @llvm.lifetime.start.p0(i64 8, ptr %8) #7
  call void @llvm.lifetime.start.p0(i64 8, ptr %9) #7
  %13 = load i64, ptr %4, align 8, !tbaa !8
  store i64 %13, ptr %9, align 8, !tbaa !8
  call void @llvm.lifetime.start.p0(i64 8, ptr %10) #7
  call void @llvm.lifetime.start.p0(i64 8, ptr %11) #7
  call void @llvm.lifetime.start.p0(i64 8, ptr %12) #7
  br label %14

14:                                               ; preds = %17, %2
  %15 = load i64, ptr %9, align 8, !tbaa !8
  %16 = icmp ugt i64 %15, 128
  br i1 %16, label %17, label %20

17:                                               ; preds = %14
  %18 = load i64, ptr %9, align 8, !tbaa !8
  %19 = lshr i64 %18, 1
  store i64 %19, ptr %9, align 8, !tbaa !8
  br label %14, !llvm.loop !15

20:                                               ; preds = %14
  store i64 0, ptr %10, align 8, !tbaa !8
  br label %21

21:                                               ; preds = %182, %20
  %22 = load i64, ptr %10, align 8, !tbaa !8
  %23 = load i64, ptr %4, align 8, !tbaa !8
  %24 = icmp ult i64 %22, %23
  br i1 %24, label %25, label %186

25:                                               ; preds = %21
  %26 = load i64, ptr %10, align 8, !tbaa !8
  store i64 %26, ptr %11, align 8, !tbaa !8
  br label %27

27:                                               ; preds = %177, %25
  %28 = load i64, ptr %11, align 8, !tbaa !8
  %29 = load i64, ptr %4, align 8, !tbaa !8
  %30 = icmp ult i64 %28, %29
  br i1 %30, label %31, label %181

31:                                               ; preds = %27
  %32 = load ptr, ptr %3, align 8, !tbaa !3
  %33 = load i64, ptr %10, align 8, !tbaa !8
  %34 = load i64, ptr %4, align 8, !tbaa !8
  %35 = mul i64 %33, %34
  %36 = getelementptr i64, ptr %32, i64 %35
  %37 = load i64, ptr %11, align 8, !tbaa !8
  %38 = getelementptr i64, ptr %36, i64 %37
  store ptr %38, ptr %8, align 8, !tbaa !3
  %39 = getelementptr inbounds [16384 x i64], ptr %5, i64 0, i64 0
  store ptr %39, ptr %7, align 8, !tbaa !3
  store i64 0, ptr %12, align 8, !tbaa !8
  br label %40

40:                                               ; preds = %55, %31
  %41 = load i64, ptr %12, align 8, !tbaa !8
  %42 = load i64, ptr %9, align 8, !tbaa !8
  %43 = icmp ult i64 %41, %42
  br i1 %43, label %44, label %58

44:                                               ; preds = %40
  %45 = load ptr, ptr %7, align 8, !tbaa !3
  %46 = load ptr, ptr %8, align 8, !tbaa !3
  %47 = load i64, ptr %9, align 8, !tbaa !8
  %48 = mul i64 %47, 8
  call void @llvm.memcpy.p0.p0.i64(ptr align 8 %45, ptr align 8 %46, i64 %48, i1 false)
  %49 = load i64, ptr %4, align 8, !tbaa !8
  %50 = load ptr, ptr %8, align 8, !tbaa !3
  %51 = getelementptr i64, ptr %50, i64 %49
  store ptr %51, ptr %8, align 8, !tbaa !3
  %52 = load i64, ptr %9, align 8, !tbaa !8
  %53 = load ptr, ptr %7, align 8, !tbaa !3
  %54 = getelementptr i64, ptr %53, i64 %52
  store ptr %54, ptr %7, align 8, !tbaa !3
  br label %55

55:                                               ; preds = %44
  %56 = load i64, ptr %12, align 8, !tbaa !8
  %57 = add i64 %56, 1
  store i64 %57, ptr %12, align 8, !tbaa !8
  br label %40, !llvm.loop !16

58:                                               ; preds = %40
  %59 = getelementptr inbounds [16384 x i64], ptr %5, i64 0, i64 0
  %60 = load i64, ptr %9, align 8, !tbaa !8
  call void @squaretrans(ptr noundef %59, i64 noundef %60)
  %61 = load i64, ptr %10, align 8, !tbaa !8
  %62 = load i64, ptr %11, align 8, !tbaa !8
  %63 = icmp eq i64 %61, %62
  br i1 %63, label %64, label %92

64:                                               ; preds = %58
  %65 = load ptr, ptr %3, align 8, !tbaa !3
  %66 = load i64, ptr %10, align 8, !tbaa !8
  %67 = load i64, ptr %4, align 8, !tbaa !8
  %68 = mul i64 %66, %67
  %69 = getelementptr i64, ptr %65, i64 %68
  %70 = load i64, ptr %11, align 8, !tbaa !8
  %71 = getelementptr i64, ptr %69, i64 %70
  store ptr %71, ptr %7, align 8, !tbaa !3
  %72 = getelementptr inbounds [16384 x i64], ptr %5, i64 0, i64 0
  store ptr %72, ptr %8, align 8, !tbaa !3
  store i64 0, ptr %12, align 8, !tbaa !8
  br label %73

73:                                               ; preds = %88, %64
  %74 = load i64, ptr %12, align 8, !tbaa !8
  %75 = load i64, ptr %9, align 8, !tbaa !8
  %76 = icmp ult i64 %74, %75
  br i1 %76, label %77, label %91

77:                                               ; preds = %73
  %78 = load ptr, ptr %7, align 8, !tbaa !3
  %79 = load ptr, ptr %8, align 8, !tbaa !3
  %80 = load i64, ptr %9, align 8, !tbaa !8
  %81 = mul i64 %80, 8
  call void @llvm.memcpy.p0.p0.i64(ptr align 8 %78, ptr align 8 %79, i64 %81, i1 false)
  %82 = load i64, ptr %9, align 8, !tbaa !8
  %83 = load ptr, ptr %8, align 8, !tbaa !3
  %84 = getelementptr i64, ptr %83, i64 %82
  store ptr %84, ptr %8, align 8, !tbaa !3
  %85 = load i64, ptr %4, align 8, !tbaa !8
  %86 = load ptr, ptr %7, align 8, !tbaa !3
  %87 = getelementptr i64, ptr %86, i64 %85
  store ptr %87, ptr %7, align 8, !tbaa !3
  br label %88

88:                                               ; preds = %77
  %89 = load i64, ptr %12, align 8, !tbaa !8
  %90 = add i64 %89, 1
  store i64 %90, ptr %12, align 8, !tbaa !8
  br label %73, !llvm.loop !17

91:                                               ; preds = %73
  br label %177

92:                                               ; preds = %58
  %93 = load ptr, ptr %3, align 8, !tbaa !3
  %94 = load i64, ptr %11, align 8, !tbaa !8
  %95 = load i64, ptr %4, align 8, !tbaa !8
  %96 = mul i64 %94, %95
  %97 = getelementptr i64, ptr %93, i64 %96
  %98 = load i64, ptr %10, align 8, !tbaa !8
  %99 = getelementptr i64, ptr %97, i64 %98
  store ptr %99, ptr %8, align 8, !tbaa !3
  %100 = getelementptr inbounds [16384 x i64], ptr %6, i64 0, i64 0
  store ptr %100, ptr %7, align 8, !tbaa !3
  store i64 0, ptr %12, align 8, !tbaa !8
  br label %101

101:                                              ; preds = %116, %92
  %102 = load i64, ptr %12, align 8, !tbaa !8
  %103 = load i64, ptr %9, align 8, !tbaa !8
  %104 = icmp ult i64 %102, %103
  br i1 %104, label %105, label %119

105:                                              ; preds = %101
  %106 = load ptr, ptr %7, align 8, !tbaa !3
  %107 = load ptr, ptr %8, align 8, !tbaa !3
  %108 = load i64, ptr %9, align 8, !tbaa !8
  %109 = mul i64 %108, 8
  call void @llvm.memcpy.p0.p0.i64(ptr align 8 %106, ptr align 8 %107, i64 %109, i1 false)
  %110 = load i64, ptr %4, align 8, !tbaa !8
  %111 = load ptr, ptr %8, align 8, !tbaa !3
  %112 = getelementptr i64, ptr %111, i64 %110
  store ptr %112, ptr %8, align 8, !tbaa !3
  %113 = load i64, ptr %9, align 8, !tbaa !8
  %114 = load ptr, ptr %7, align 8, !tbaa !3
  %115 = getelementptr i64, ptr %114, i64 %113
  store ptr %115, ptr %7, align 8, !tbaa !3
  br label %116

116:                                              ; preds = %105
  %117 = load i64, ptr %12, align 8, !tbaa !8
  %118 = add i64 %117, 1
  store i64 %118, ptr %12, align 8, !tbaa !8
  br label %101, !llvm.loop !18

119:                                              ; preds = %101
  %120 = getelementptr inbounds [16384 x i64], ptr %6, i64 0, i64 0
  %121 = load i64, ptr %9, align 8, !tbaa !8
  call void @squaretrans(ptr noundef %120, i64 noundef %121)
  %122 = load ptr, ptr %3, align 8, !tbaa !3
  %123 = load i64, ptr %11, align 8, !tbaa !8
  %124 = load i64, ptr %4, align 8, !tbaa !8
  %125 = mul i64 %123, %124
  %126 = getelementptr i64, ptr %122, i64 %125
  %127 = load i64, ptr %10, align 8, !tbaa !8
  %128 = getelementptr i64, ptr %126, i64 %127
  store ptr %128, ptr %7, align 8, !tbaa !3
  %129 = getelementptr inbounds [16384 x i64], ptr %5, i64 0, i64 0
  store ptr %129, ptr %8, align 8, !tbaa !3
  store i64 0, ptr %12, align 8, !tbaa !8
  br label %130

130:                                              ; preds = %145, %119
  %131 = load i64, ptr %12, align 8, !tbaa !8
  %132 = load i64, ptr %9, align 8, !tbaa !8
  %133 = icmp ult i64 %131, %132
  br i1 %133, label %134, label %148

134:                                              ; preds = %130
  %135 = load ptr, ptr %7, align 8, !tbaa !3
  %136 = load ptr, ptr %8, align 8, !tbaa !3
  %137 = load i64, ptr %9, align 8, !tbaa !8
  %138 = mul i64 %137, 8
  call void @llvm.memcpy.p0.p0.i64(ptr align 8 %135, ptr align 8 %136, i64 %138, i1 false)
  %139 = load i64, ptr %9, align 8, !tbaa !8
  %140 = load ptr, ptr %8, align 8, !tbaa !3
  %141 = getelementptr i64, ptr %140, i64 %139
  store ptr %141, ptr %8, align 8, !tbaa !3
  %142 = load i64, ptr %4, align 8, !tbaa !8
  %143 = load ptr, ptr %7, align 8, !tbaa !3
  %144 = getelementptr i64, ptr %143, i64 %142
  store ptr %144, ptr %7, align 8, !tbaa !3
  br label %145

145:                                              ; preds = %134
  %146 = load i64, ptr %12, align 8, !tbaa !8
  %147 = add i64 %146, 1
  store i64 %147, ptr %12, align 8, !tbaa !8
  br label %130, !llvm.loop !19

148:                                              ; preds = %130
  %149 = load ptr, ptr %3, align 8, !tbaa !3
  %150 = load i64, ptr %10, align 8, !tbaa !8
  %151 = load i64, ptr %4, align 8, !tbaa !8
  %152 = mul i64 %150, %151
  %153 = getelementptr i64, ptr %149, i64 %152
  %154 = load i64, ptr %11, align 8, !tbaa !8
  %155 = getelementptr i64, ptr %153, i64 %154
  store ptr %155, ptr %7, align 8, !tbaa !3
  %156 = getelementptr inbounds [16384 x i64], ptr %6, i64 0, i64 0
  store ptr %156, ptr %8, align 8, !tbaa !3
  store i64 0, ptr %12, align 8, !tbaa !8
  br label %157

157:                                              ; preds = %172, %148
  %158 = load i64, ptr %12, align 8, !tbaa !8
  %159 = load i64, ptr %9, align 8, !tbaa !8
  %160 = icmp ult i64 %158, %159
  br i1 %160, label %161, label %175

161:                                              ; preds = %157
  %162 = load ptr, ptr %7, align 8, !tbaa !3
  %163 = load ptr, ptr %8, align 8, !tbaa !3
  %164 = load i64, ptr %9, align 8, !tbaa !8
  %165 = mul i64 %164, 8
  call void @llvm.memcpy.p0.p0.i64(ptr align 8 %162, ptr align 8 %163, i64 %165, i1 false)
  %166 = load i64, ptr %9, align 8, !tbaa !8
  %167 = load ptr, ptr %8, align 8, !tbaa !3
  %168 = getelementptr i64, ptr %167, i64 %166
  store ptr %168, ptr %8, align 8, !tbaa !3
  %169 = load i64, ptr %4, align 8, !tbaa !8
  %170 = load ptr, ptr %7, align 8, !tbaa !3
  %171 = getelementptr i64, ptr %170, i64 %169
  store ptr %171, ptr %7, align 8, !tbaa !3
  br label %172

172:                                              ; preds = %161
  %173 = load i64, ptr %12, align 8, !tbaa !8
  %174 = add i64 %173, 1
  store i64 %174, ptr %12, align 8, !tbaa !8
  br label %157, !llvm.loop !20

175:                                              ; preds = %157
  br label %176

176:                                              ; preds = %175
  br label %177

177:                                              ; preds = %176, %91
  %178 = load i64, ptr %9, align 8, !tbaa !8
  %179 = load i64, ptr %11, align 8, !tbaa !8
  %180 = add i64 %179, %178
  store i64 %180, ptr %11, align 8, !tbaa !8
  br label %27, !llvm.loop !21

181:                                              ; preds = %27
  br label %182

182:                                              ; preds = %181
  %183 = load i64, ptr %9, align 8, !tbaa !8
  %184 = load i64, ptr %10, align 8, !tbaa !8
  %185 = add i64 %184, %183
  store i64 %185, ptr %10, align 8, !tbaa !8
  br label %21, !llvm.loop !22

186:                                              ; preds = %21
  call void @llvm.lifetime.end.p0(i64 8, ptr %12) #7
  call void @llvm.lifetime.end.p0(i64 8, ptr %11) #7
  call void @llvm.lifetime.end.p0(i64 8, ptr %10) #7
  call void @llvm.lifetime.end.p0(i64 8, ptr %9) #7
  call void @llvm.lifetime.end.p0(i64 8, ptr %8) #7
  call void @llvm.lifetime.end.p0(i64 8, ptr %7) #7
  call void @llvm.lifetime.end.p0(i64 131072, ptr %6) #7
  call void @llvm.lifetime.end.p0(i64 131072, ptr %5) #7
  ret void
}