; Function Attrs: nofree norecurse nosync nounwind memory(argmem: readwrite) uwtable
define internal fastcc void @squaretrans_pow2(ptr noundef captures(none) %0, i64 noundef %1) unnamed_addr #0 {
  %3 = alloca [16384 x i64], align 16
  %4 = alloca [16384 x i64], align 16
  call void @llvm.lifetime.start.p0(i64 131072, ptr nonnull %3) #13
  call void @llvm.lifetime.start.p0(i64 131072, ptr nonnull %4) #13
  br label %5

5:                                                ; preds = %5, %2
  %.087 = phi i64 [ %1, %2 ], [ %7, %5 ]
  %6 = icmp ugt i64 %.087, 128
  %7 = lshr i64 %.087, 1
  br i1 %6, label %5, label %.preheader114, !llvm.loop !13

.preheader114:                                    ; preds = %5
  %.not = icmp eq i64 %1, 0
  br i1 %.not, label %._crit_edge138, label %.preheader113.lr.ph

.preheader113.lr.ph:                              ; preds = %.preheader114
  %.not139 = icmp eq i64 %.087, 0
  %8 = shl nuw nsw i64 %.087, 3
  br label %.preheader113

.preheader113:                                    ; preds = %.preheader113.lr.ph, %58
  %.086137 = phi i64 [ 0, %.preheader113.lr.ph ], [ %59, %58 ]
  %invariant.gep = getelementptr i64, ptr %0, i64 %.086137
  %9 = mul i64 %.086137, %1
  %10 = getelementptr i64, ptr %0, i64 %9
  br label %11

11:                                               ; preds = %.preheader113, %.loopexit
  %.085136 = phi i64 [ %.086137, %.preheader113 ], [ %56, %.loopexit ]
  %12 = getelementptr i64, ptr %10, i64 %.085136
  br i1 %.not139, label %.loopexit, label %.lr.ph

.lr.ph:                                           ; preds = %11, %.lr.ph
  %.0117 = phi i64 [ %15, %.lr.ph ], [ 0, %11 ]
  %.088116 = phi ptr [ %13, %.lr.ph ], [ %12, %11 ]
  %.093115 = phi ptr [ %14, %.lr.ph ], [ %3, %11 ]
  call void @llvm.memcpy.p0.p0.i64(ptr align 8 %.093115, ptr align 8 %.088116, i64 %8, i1 false)
  %13 = getelementptr i64, ptr %.088116, i64 %1
  %14 = getelementptr i64, ptr %.093115, i64 %.087
  %15 = add nuw nsw i64 %.0117, 1
  %exitcond.not = icmp eq i64 %15, %.087
  br i1 %exitcond.not, label %.lr.ph33.i, label %.lr.ph, !llvm.loop !14

.loopexit.i:                                      ; preds = %.lr.ph.i, %.lr.ph33.i
  %exitcond34.not.i = icmp eq i64 %16, %.087
  br i1 %exitcond34.not.i, label %squaretrans.exit, label %.lr.ph33.i, !llvm.loop !15

.lr.ph33.i:                                       ; preds = %.lr.ph, %.loopexit.i
  %.02532.i = phi i64 [ %16, %.loopexit.i ], [ 0, %.lr.ph ]
  %16 = add nuw nsw i64 %.02532.i, 1
  %17 = icmp samesign ult i64 %16, %.087
  br i1 %17, label %.lr.ph.preheader.i, label %.loopexit.i

.lr.ph.preheader.i:                               ; preds = %.lr.ph33.i
  %18 = mul nuw nsw i64 %16, %.087
  %19 = add nuw nsw i64 %18, %.02532.i
  %20 = mul nuw nsw i64 %.02532.i, %.087
  %21 = add nuw nsw i64 %20, %16
  br label %.lr.ph.i

.lr.ph.i:                                         ; preds = %.lr.ph.i, %.lr.ph.preheader.i
  %.031.i = phi i64 [ %28, %.lr.ph.i ], [ %16, %.lr.ph.preheader.i ]
  %.02630.i = phi i64 [ %26, %.lr.ph.i ], [ %21, %.lr.ph.preheader.i ]
  %.02729.i = phi i64 [ %27, %.lr.ph.i ], [ %19, %.lr.ph.preheader.i ]
  %22 = getelementptr i64, ptr %3, i64 %.02630.i
  %23 = load i64, ptr %22, align 8, !tbaa !3
  %24 = getelementptr i64, ptr %3, i64 %.02729.i
  %25 = load i64, ptr %24, align 8, !tbaa !3
  store i64 %25, ptr %22, align 8, !tbaa !3
  store i64 %23, ptr %24, align 8, !tbaa !3
  %26 = add nuw nsw i64 %.02630.i, 1
  %27 = add nuw nsw i64 %.02729.i, %.087
  %28 = add nuw nsw i64 %.031.i, 1
  %exitcond.not.i = icmp eq i64 %28, %.087
  br i1 %exitcond.not.i, label %.loopexit.i, label %.lr.ph.i, !llvm.loop !16

squaretrans.exit:                                 ; preds = %.loopexit.i
  %29 = icmp eq i64 %.086137, %.085136
  br i1 %29, label %.lr.ph135, label %.lr.ph122.preheader

.lr.ph135:                                        ; preds = %squaretrans.exit, %.lr.ph135
  %.1134 = phi i64 [ %32, %.lr.ph135 ], [ 0, %squaretrans.exit ]
  %.189133 = phi ptr [ %30, %.lr.ph135 ], [ %3, %squaretrans.exit ]
  %.194132 = phi ptr [ %31, %.lr.ph135 ], [ %12, %squaretrans.exit ]
  call void @llvm.memcpy.p0.p0.i64(ptr align 8 %.194132, ptr align 8 %.189133, i64 %8, i1 false)
  %30 = getelementptr i64, ptr %.189133, i64 %.087
  %31 = getelementptr i64, ptr %.194132, i64 %1
  %32 = add nuw nsw i64 %.1134, 1
  %exitcond153.not = icmp eq i64 %32, %.087
  br i1 %exitcond153.not, label %.loopexit, label %.lr.ph135, !llvm.loop !17

.lr.ph122.preheader:                              ; preds = %squaretrans.exit
  %33 = mul i64 %.085136, %1
  %gep = getelementptr i64, ptr %invariant.gep, i64 %33
  br label %.lr.ph122

.lr.ph122:                                        ; preds = %.lr.ph122.preheader, %.lr.ph122
  %.2120 = phi i64 [ %36, %.lr.ph122 ], [ 0, %.lr.ph122.preheader ]
  %.290119 = phi ptr [ %34, %.lr.ph122 ], [ %gep, %.lr.ph122.preheader ]
  %.295118 = phi ptr [ %35, %.lr.ph122 ], [ %4, %.lr.ph122.preheader ]
  call void @llvm.memcpy.p0.p0.i64(ptr align 8 %.295118, ptr align 8 %.290119, i64 %8, i1 false)
  %34 = getelementptr i64, ptr %.290119, i64 %1
  %35 = getelementptr i64, ptr %.295118, i64 %.087
  %36 = add nuw nsw i64 %.2120, 1
  %exitcond147.not = icmp eq i64 %36, %.087
  br i1 %exitcond147.not, label %.lr.ph33.i100, label %.lr.ph122, !llvm.loop !18

.loopexit.i102:                                   ; preds = %.lr.ph.i105, %.lr.ph33.i100
  %exitcond34.not.i103 = icmp eq i64 %37, %.087
  br i1 %exitcond34.not.i103, label %.lr.ph127, label %.lr.ph33.i100, !llvm.loop !15

.lr.ph33.i100:                                    ; preds = %.lr.ph122, %.loopexit.i102
  %.02532.i101 = phi i64 [ %37, %.loopexit.i102 ], [ 0, %.lr.ph122 ]
  %37 = add nuw nsw i64 %.02532.i101, 1
  %38 = icmp samesign ult i64 %37, %.087
  br i1 %38, label %.lr.ph.preheader.i104, label %.loopexit.i102

.lr.ph.preheader.i104:                            ; preds = %.lr.ph33.i100
  %39 = mul nuw nsw i64 %37, %.087
  %40 = add nuw nsw i64 %39, %.02532.i101
  %41 = mul nuw nsw i64 %.02532.i101, %.087
  %42 = add nuw nsw i64 %41, %37
  br label %.lr.ph.i105

.lr.ph.i105:                                      ; preds = %.lr.ph.i105, %.lr.ph.preheader.i104
  %.031.i106 = phi i64 [ %49, %.lr.ph.i105 ], [ %37, %.lr.ph.preheader.i104 ]
  %.02630.i107 = phi i64 [ %47, %.lr.ph.i105 ], [ %42, %.lr.ph.preheader.i104 ]
  %.02729.i108 = phi i64 [ %48, %.lr.ph.i105 ], [ %40, %.lr.ph.preheader.i104 ]
  %43 = getelementptr i64, ptr %4, i64 %.02630.i107
  %44 = load i64, ptr %43, align 8, !tbaa !3
  %45 = getelementptr i64, ptr %4, i64 %.02729.i108
  %46 = load i64, ptr %45, align 8, !tbaa !3
  store i64 %46, ptr %43, align 8, !tbaa !3
  store i64 %44, ptr %45, align 8, !tbaa !3
  %47 = add nuw nsw i64 %.02630.i107, 1
  %48 = add nuw nsw i64 %.02729.i108, %.087
  %49 = add nuw nsw i64 %.031.i106, 1
  %exitcond.not.i109 = icmp eq i64 %49, %.087
  br i1 %exitcond.not.i109, label %.loopexit.i102, label %.lr.ph.i105, !llvm.loop !16

.lr.ph127:                                        ; preds = %.loopexit.i102, %.lr.ph127
  %.3126 = phi i64 [ %52, %.lr.ph127 ], [ 0, %.loopexit.i102 ]
  %.391125 = phi ptr [ %50, %.lr.ph127 ], [ %3, %.loopexit.i102 ]
  %.396124 = phi ptr [ %51, %.lr.ph127 ], [ %gep, %.loopexit.i102 ]
  call void @llvm.memcpy.p0.p0.i64(ptr align 8 %.396124, ptr align 8 %.391125, i64 %8, i1 false)
  %50 = getelementptr i64, ptr %.391125, i64 %.087
  %51 = getelementptr i64, ptr %.396124, i64 %1
  %52 = add nuw nsw i64 %.3126, 1
  %exitcond149.not = icmp eq i64 %52, %.087
  br i1 %exitcond149.not, label %.lr.ph131, label %.lr.ph127, !llvm.loop !19

.lr.ph131:                                        ; preds = %.lr.ph127, %.lr.ph131
  %.4130 = phi i64 [ %55, %.lr.ph131 ], [ 0, %.lr.ph127 ]
  %.492129 = phi ptr [ %53, %.lr.ph131 ], [ %4, %.lr.ph127 ]
  %.497128 = phi ptr [ %54, %.lr.ph131 ], [ %12, %.lr.ph127 ]
  call void @llvm.memcpy.p0.p0.i64(ptr align 8 %.497128, ptr align 8 %.492129, i64 %8, i1 false)
  %53 = getelementptr i64, ptr %.492129, i64 %.087
  %54 = getelementptr i64, ptr %.497128, i64 %1
  %55 = add nuw nsw i64 %.4130, 1
  %exitcond151.not = icmp eq i64 %55, %.087
  br i1 %exitcond151.not, label %.loopexit, label %.lr.ph131, !llvm.loop !20

.loopexit:                                        ; preds = %.lr.ph131, %.lr.ph135, %11
  %56 = add i64 %.085136, %.087
  %57 = icmp ult i64 %56, %1
  br i1 %57, label %11, label %58, !llvm.loop !21

58:                                               ; preds = %.loopexit
  %59 = add i64 %.086137, %.087
  %60 = icmp ult i64 %59, %1
  br i1 %60, label %.preheader113, label %._crit_edge138, !llvm.loop !22

._crit_edge138:                                   ; preds = %58, %.preheader114
  call void @llvm.lifetime.end.p0(i64 131072, ptr nonnull %4) #13
  call void @llvm.lifetime.end.p0(i64 131072, ptr nonnull %3) #13
  ret void
}